(dp0
S'BackStairsLights'
p1
(dp2
S'timeoutCounter'
p3
I1
sS'highestSequentialErrors'
p4
I0
sS'errorCounter'
p5
I0
ssS'ButlerKitchenLight'
p6
(dp7
g3
I1
sg4
I0
sg5
I0
ssS'MasterBathCenterLight'
p8
(dp9
g3
I0
sg4
I1
sg5
I1
ssS'MasterBarbiesClosetLight'
p10
(dp11
g3
I0
sg4
I1
sg5
I2
ssS'UpstairsHallRightB'
p12
(dp13
g3
I0
sg4
I1
sg5
I1
ssS'DownstairsHallRightLights1'
p14
(dp15
g3
I2
sg4
I1
sg5
I1
ssS'FamilyRoomCanLights'
p16
(dp17
g3
I1
sg4
I0
sg5
I0
ssS'UpstairsHallRightA1'
p18
(dp19
g3
I0
sg4
I1
sg5
I1
ssS'FamilyRoomBathVanityLight'
p20
(dp21
g3
I1
sg4
I1
sg5
I1
ssS'MasterBathCenterLight1'
p22
(dp23
g3
I0
sg4
I1
sg5
I1
ssS'MasterGregsClosetLight'
p24
(dp25
g3
I0
sg4
I1
sg5
I1
ssS'GarageHall2'
p26
(dp27
g3
I0
sg4
I1
sg5
I1
ssS'GregsOfficeClosetDimmer'
p28
(dp29
g3
I1
sg4
I0
sg5
I0
ssS'FrontPondOutletTop'
p30
(dp31
g3
I0
sg4
I1
sg5
I2
ssS'GarageHall1'
p32
(dp33
g3
I0
sg4
I1
sg5
I3
ssS'FrontPondOutletBottom'
p34
(dp35
g3
I0
sg4
I1
sg5
I1
ssS'GarageHall'
p36
(dp37
g3
I1
sg4
I1
sg5
I4
ssS'DownstairsHallRightLights'
p38
(dp39
g3
I4
sg4
I1
sg5
I1
ssS'KitchenBathLight'
p40
(dp41
g3
I0
sg4
I1
sg5
I1
ss.